target datalayout = "e-m:e-p270:32:32-p271:32:32-p272:64:64-i64:64-i128:128-f80:128-n8:16:32:64-S128"
target triple = "x86_64-pc-linux-gnu"

%struct.AVRational = type { i32, i32 }
%struct.AVPacket = type { ptr, i64, i64, ptr, i32, i32, i32, ptr, i32, i64, i64, ptr, ptr, %struct.AVRational }
%struct.AVPacketSideData = type { ptr, i64, i32 }

; Function Attrs: nounwind uwtable
define i32 @av_packet_shrink_side_data(ptr noundef %0, i32 noundef %1, i64 noundef %2) #0 {
  %4 = alloca i32, align 4
  %5 = alloca ptr, align 8
  %6 = alloca i32, align 4
  %7 = alloca i64, align 8
  %8 = alloca i32, align 4
  %9 = alloca i32, align 4
  store ptr %0, ptr %5, align 8, !tbaa !4
  store i32 %1, ptr %6, align 4, !tbaa !28
  store i64 %2, ptr %7, align 8, !tbaa !43
  call void @llvm.lifetime.start.p0(i64 4, ptr %8) #9
  store i32 0, ptr %8, align 4, !tbaa !28
  br label %10

10:                                               ; preds = %49, %3
  %11 = load i32, ptr %8, align 4, !tbaa !28
  %12 = load ptr, ptr %5, align 8, !tbaa !4
  %13 = getelementptr inbounds nuw %struct.AVPacket, ptr %12, i32 0, i32 8
  %14 = load i32, ptr %13, align 8, !tbaa !24
  %15 = icmp slt i32 %11, %14
  br i1 %15, label %16, label %52

16:                                               ; preds = %10
  %17 = load ptr, ptr %5, align 8, !tbaa !4
  %18 = getelementptr inbounds nuw %struct.AVPacket, ptr %17, i32 0, i32 7
  %19 = load ptr, ptr %18, align 8, !tbaa !23
  %20 = load i32, ptr %8, align 4, !tbaa !28
  %21 = sext i32 %20 to i64
  %22 = getelementptr inbounds %struct.AVPacketSideData, ptr %19, i64 %21
  %23 = getelementptr inbounds nuw %struct.AVPacketSideData, ptr %22, i32 0, i32 2
  %24 = load i32, ptr %23, align 8, !tbaa !48
  %25 = load i32, ptr %6, align 4, !tbaa !28
  %26 = icmp eq i32 %24, %25
  br i1 %26, label %27, label %48

27:                                               ; preds = %16
  %28 = load i64, ptr %7, align 8, !tbaa !43
  %29 = load ptr, ptr %5, align 8, !tbaa !4
  %30 = getelementptr inbounds nuw %struct.AVPacket, ptr %29, i32 0, i32 7
  %31 = load ptr, ptr %30, align 8, !tbaa !23
  %32 = load i32, ptr %8, align 4, !tbaa !28
  %33 = sext i32 %32 to i64
  %34 = getelementptr inbounds %struct.AVPacketSideData, ptr %31, i64 %33
  %35 = getelementptr inbounds nuw %struct.AVPacketSideData, ptr %34, i32 0, i32 1
  %36 = load i64, ptr %35, align 8, !tbaa !51
  %37 = icmp ugt i64 %28, %36
  br i1 %37, label %38, label %39

38:                                               ; preds = %27
  store i32 -12, ptr %4, align 4
  store i32 1, ptr %9, align 4
  br label %53

39:                                               ; preds = %27
  %40 = load i64, ptr %7, align 8, !tbaa !43
  %41 = load ptr, ptr %5, align 8, !tbaa !4
  %42 = getelementptr inbounds nuw %struct.AVPacket, ptr %41, i32 0, i32 7
  %43 = load ptr, ptr %42, align 8, !tbaa !23
  %44 = load i32, ptr %8, align 4, !tbaa !28
  %45 = sext i32 %44 to i64
  %46 = getelementptr inbounds %struct.AVPacketSideData, ptr %43, i64 %45
  %47 = getelementptr inbounds nuw %struct.AVPacketSideData, ptr %46, i32 0, i32 1
  store i64 %40, ptr %47, align 8, !tbaa !51
  store i32 0, ptr %4, align 4
  store i32 1, ptr %9, align 4
  br label %53

48:                                               ; preds = %16
  br label %49

49:                                               ; preds = %48
  %50 = load i32, ptr %8, align 4, !tbaa !28
  %51 = add nsw i32 %50, 1
  store i32 %51, ptr %8, align 4, !tbaa !28
  br label %10, !llvm.loop !70

52:                                               ; preds = %10
  store i32 -2, ptr %4, align 4
  store i32 1, ptr %9, align 4
  br label %53

53:                                               ; preds = %52, %39, %38
  call void @llvm.lifetime.end.p0(i64 4, ptr %8) #9
  %54 = load i32, ptr %4, align 4
  ret i32 %54
}