; Function Attrs: nofree norecurse nosync nounwind memory(readwrite, inaccessiblemem: none) uwtable
define range(i32 -12, 1) i32 @av_packet_shrink_side_data(ptr noundef readonly captures(none) %0, i32 noundef %1, i64 noundef %2) local_unnamed_addr #11 {
  %4 = getelementptr inbounds nuw i8, ptr %0, i64 56
  %5 = load i32, ptr %4, align 8, !tbaa !22
  %6 = icmp sgt i32 %5, 0
  br i1 %6, label %.lr.ph, label %.loopexit

.lr.ph:                                           ; preds = %3
  %7 = getelementptr inbounds nuw i8, ptr %0, i64 48
  %8 = load ptr, ptr %7, align 8, !tbaa !21
  %wide.trip.count = zext nneg i32 %5 to i64
  br label %10

9:                                                ; preds = %10
  %indvars.iv.next = add nuw nsw i64 %indvars.iv, 1
  %exitcond.not = icmp eq i64 %indvars.iv.next, %wide.trip.count
  br i1 %exitcond.not, label %.loopexit, label %10, !llvm.loop !47

10:                                               ; preds = %.lr.ph, %9
  %indvars.iv = phi i64 [ 0, %.lr.ph ], [ %indvars.iv.next, %9 ]
  %11 = getelementptr inbounds nuw %struct.AVPacketSideData, ptr %8, i64 %indvars.iv
  %12 = getelementptr inbounds nuw i8, ptr %11, i64 16
  %13 = load i32, ptr %12, align 8, !tbaa !35
  %14 = icmp eq i32 %13, %1
  br i1 %14, label %15, label %9

15:                                               ; preds = %10
  %16 = getelementptr inbounds nuw i8, ptr %11, i64 8
  %17 = load i64, ptr %16, align 8, !tbaa !38
  %18 = icmp ugt i64 %2, %17
  br i1 %18, label %.loopexit, label %19

19:                                               ; preds = %15
  store i64 %2, ptr %16, align 8, !tbaa !38
  br label %.loopexit

.loopexit:                                        ; preds = %9, %3, %15, %19
  %.012 = phi i32 [ 0, %19 ], [ -12, %15 ], [ -2, %3 ], [ -2, %9 ]
  ret i32 %.012
}